Certificate:
    Data:
        Version: 3 (0x2)
        Serial Number:
            5e:83:d8:72:12:43:e3:d3:c7:37:f4:df:74:eb:3c:aa
        Signature Algorithm: ecdsa-with-SHA512
        Issuer: C=ZZ, O=WindTalker Matrix, OU=WindTalker Security Center, CN=WindTalker Root R1
        Validity
            Not Before: Jan 13 03:05:50 2024 GMT
            Not After : Jan 10 03:05:50 2034 GMT
        Subject: C=ZZ, O=WindTalker Matrix, OU=WindTalker Security Center, CN=WindTalker Root R1
        Subject Public Key Info:
            Public Key Algorithm: id-ecPublicKey
                Public-Key: (384 bit)
                pub:
                    04:97:17:01:8d:90:36:c9:a6:54:4d:98:4e:d3:da:
                    28:cf:b7:05:34:8b:9b:ea:17:bd:67:43:61:41:df:
                    65:fb:e3:42:4c:bf:2e:45:ef:b0:60:e3:e0:b0:c7:
                    61:d7:2a:8f:15:eb:67:07:0a:d9:6c:ca:76:8d:9e:
                    90:75:dc:76:84:07:17:6a:c6:2c:b5:51:ec:8e:d8:
                    3f:7a:7b:7e:d0:8e:d3:14:2d:cf:c8:b7:bc:20:ed:
                    8e:24:95:97:73:13:a7
                ASN1 OID: secp384r1
                NIST CURVE: P-384
        X509v3 extensions:
            X509v3 Basic Constraints: critical
                CA:TRUE
            X509v3 Key Usage: critical
                Digital Signature, Certificate Sign, CRL Sign
            X509v3 Subject Key Identifier: 
                F3:72:DF:61:FB:9D:0F:C7:13:94:EC:FE:6F:96:A5:BD:89:2E:4C:8A
            X509v3 Authority Key Identifier: 
                F3:72:DF:61:FB:9D:0F:C7:13:94:EC:FE:6F:96:A5:BD:89:2E:4C:8A
    Signature Algorithm: ecdsa-with-SHA512
    Signature Value:
        30:64:02:30:58:53:37:81:ce:96:34:66:36:14:6b:6e:f5:43:
        80:94:14:e8:b7:0f:82:66:53:9b:aa:92:56:f0:93:23:03:03:
        a7:6f:62:82:6a:f8:34:ce:10:6b:48:0c:f8:81:50:73:02:30:
        2c:34:0f:73:5a:d4:1b:8f:7b:9b:1b:fe:5e:38:e0:ee:fb:00:
        44:9f:93:35:e8:06:4e:5d:bf:d5:c3:ab:41:b2:01:52:72:13:
        11:9f:36:2d:18:36:a1:70:40:c3:1c:47
-----BEGIN CERTIFICATE-----
MIICczCCAfqgAwIBAgIQXoPYchJD49PHN/TfdOs8qjAKBggqhkjOPQQDBDBrMQsw
CQYDVQQGEwJaWjEaMBgGA1UECgwRV2luZFRhbGtlciBNYXRyaXgxIzAhBgNVBAsM
GldpbmRUYWxrZXIgU2VjdXJpdHkgQ2VudGVyMRswGQYDVQQDDBJXaW5kVGFsa2Vy
IFJvb3QgUjEwHhcNMjQwMTEzMDMwNTUwWhcNMzQwMTEwMDMwNTUwWjBrMQswCQYD
VQQGEwJaWjEaMBgGA1UECgwRV2luZFRhbGtlciBNYXRyaXgxIzAhBgNVBAsMGldp
bmRUYWxrZXIgU2VjdXJpdHkgQ2VudGVyMRswGQYDVQQDDBJXaW5kVGFsa2VyIFJv
b3QgUjEwdjAQBgcqhkjOPQIBBgUrgQQAIgNiAASXFwGNkDbJplRNmE7T2ijPtwU0
i5vqF71nQ2FB32X740JMvy5F77Bg4+Cwx2HXKo8V62cHCtlsynaNnpB13HaEBxdq
xiy1UeyO2D96e37QjtMULc/It7wg7Y4klZdzE6ejYzBhMA8GA1UdEwEB/wQFMAMB
Af8wDgYDVR0PAQH/BAQDAgGGMB0GA1UdDgQWBBTzct9h+50PxxOU7P5vlqW9iS5M
ijAfBgNVHSMEGDAWgBTzct9h+50PxxOU7P5vlqW9iS5MijAKBggqhkjOPQQDBANn
ADBkAjBYUzeBzpY0ZjYUa271Q4CUFOi3D4JmU5uqklbwkyMDA6dvYoJq+DTOEGtI
DPiBUHMCMCw0D3Na1BuPe5sb/l444O77AESfkzXoBk5dv9XDq0GyAVJyExGfNi0Y
NqFwQMMcRw==
-----END CERTIFICATE-----
